target datalayout = "e-m:e-p270:32:32-p271:32:32-p272:64:64-i64:64-i128:128-f80:128-n8:16:32:64-S128"
target triple = "x86_64-pc-linux-gnu"

%struct.Aig_Obj_t_ = type { %union.anon, ptr, ptr, i64, i32, i32, %union.anon.0 }
%union.anon = type { ptr }
%union.anon.0 = type { ptr }
%struct.Aig_Man_t_ = type { ptr, ptr, ptr, ptr, ptr, ptr, ptr, %struct.Aig_Obj_t_, i32, i32, i32, i32, i32, i32, [7 x i32], i32, ptr, i32, ptr, i32, ptr, i32, i32, i32, ptr, i32, i32, i32, i32, i32, ptr, ptr, i32, ptr, ptr, i32, ptr, ptr, i32, i32, i32, ptr, ptr, ptr, ptr, ptr, ptr, ptr, ptr, ptr, ptr, ptr, ptr, ptr, ptr, i32, ptr, ptr, ptr, ptr, i32, i64, i64, i64, ptr, ptr }
%struct.Vec_Ptr_t_ = type { i32, i32, ptr }

@.str = private unnamed_addr constant [62 x i8] c"Total matches = %6d.  Wrong matches = %6d.  Ratio = %5.2f %%\0A\00", align 1

; Function Attrs: inlinehint nounwind uwtable
define internal void @Aig_ObjSetRepr(ptr noundef %0, ptr noundef %1, ptr noundef %2) #3 {
  %4 = alloca ptr, align 8
  %5 = alloca ptr, align 8
  %6 = alloca ptr, align 8
  store ptr %0, ptr %4, align 8, !tbaa !24
  store ptr %1, ptr %5, align 8, !tbaa !3
  store ptr %2, ptr %6, align 8, !tbaa !3
  %7 = load ptr, ptr %6, align 8, !tbaa !3
  %8 = load ptr, ptr %4, align 8, !tbaa !24
  %9 = getelementptr inbounds nuw %struct.Aig_Man_t_, ptr %8, i32 0, i32 31
  %10 = load ptr, ptr %9, align 8, !tbaa !50
  %11 = load ptr, ptr %5, align 8, !tbaa !3
  %12 = getelementptr inbounds nuw %struct.Aig_Obj_t_, ptr %11, i32 0, i32 5
  %13 = load i32, ptr %12, align 4, !tbaa !51
  %14 = sext i32 %13 to i64
  %15 = getelementptr inbounds ptr, ptr %10, i64 %14
  store ptr %7, ptr %15, align 8, !tbaa !3
  ret void
}

; Function Attrs: inlinehint nounwind uwtable
define internal i32 @Aig_ObjIsTravIdCurrent(ptr noundef %0, ptr noundef %1) #3 {
  %3 = alloca ptr, align 8
  %4 = alloca ptr, align 8
  store ptr %0, ptr %3, align 8, !tbaa !24
  store ptr %1, ptr %4, align 8, !tbaa !3
  %5 = load ptr, ptr %4, align 8, !tbaa !3
  %6 = getelementptr inbounds nuw %struct.Aig_Obj_t_, ptr %5, i32 0, i32 4
  %7 = load i32, ptr %6, align 8, !tbaa !76
  %8 = load ptr, ptr %3, align 8, !tbaa !24
  %9 = getelementptr inbounds nuw %struct.Aig_Man_t_, ptr %8, i32 0, i32 38
  %10 = load i32, ptr %9, align 8, !tbaa !75
  %11 = icmp eq i32 %7, %10
  %12 = zext i1 %11 to i32
  ret i32 %12
}

; Function Attrs: inlinehint nounwind uwtable
define internal ptr @Aig_ObjRepr(ptr noundef %0, ptr noundef %1) #3 {
  %3 = alloca ptr, align 8
  %4 = alloca ptr, align 8
  store ptr %0, ptr %3, align 8, !tbaa !24
  store ptr %1, ptr %4, align 8, !tbaa !3
  %5 = load ptr, ptr %3, align 8, !tbaa !24
  %6 = getelementptr inbounds nuw %struct.Aig_Man_t_, ptr %5, i32 0, i32 31
  %7 = load ptr, ptr %6, align 8, !tbaa !50
  %8 = icmp ne ptr %7, null
  br i1 %8, label %9, label %19

9:                                                ; preds = %2
  %10 = load ptr, ptr %3, align 8, !tbaa !24
  %11 = getelementptr inbounds nuw %struct.Aig_Man_t_, ptr %10, i32 0, i32 31
  %12 = load ptr, ptr %11, align 8, !tbaa !50
  %13 = load ptr, ptr %4, align 8, !tbaa !3
  %14 = getelementptr inbounds nuw %struct.Aig_Obj_t_, ptr %13, i32 0, i32 5
  %15 = load i32, ptr %14, align 4, !tbaa !51
  %16 = sext i32 %15 to i64
  %17 = getelementptr inbounds ptr, ptr %12, i64 %16
  %18 = load ptr, ptr %17, align 8, !tbaa !3
  br label %20

19:                                               ; preds = %2
  br label %20

20:                                               ; preds = %19, %9
  %21 = phi ptr [ %18, %9 ], [ null, %19 ]
  ret ptr %21
}

; Function Attrs: inlinehint nounwind uwtable
define internal i32 @Vec_PtrSize(ptr noundef %0) #3 {
  %2 = alloca ptr, align 8
  store ptr %0, ptr %2, align 8, !tbaa !45
  %3 = load ptr, ptr %2, align 8, !tbaa !45
  %4 = getelementptr inbounds nuw %struct.Vec_Ptr_t_, ptr %3, i32 0, i32 1
  %5 = load i32, ptr %4, align 4, !tbaa !46
  ret i32 %5
}

; Function Attrs: inlinehint nounwind uwtable
define internal ptr @Vec_PtrEntry(ptr noundef %0, i32 noundef %1) #3 {
  %3 = alloca ptr, align 8
  %4 = alloca i32, align 4
  store ptr %0, ptr %3, align 8, !tbaa !45
  store i32 %1, ptr %4, align 4, !tbaa !8
  %5 = load ptr, ptr %3, align 8, !tbaa !45
  %6 = getelementptr inbounds nuw %struct.Vec_Ptr_t_, ptr %5, i32 0, i32 2
  %7 = load ptr, ptr %6, align 8, !tbaa !48
  %8 = load i32, ptr %4, align 4, !tbaa !8
  %9 = sext i32 %8 to i64
  %10 = getelementptr inbounds ptr, ptr %7, i64 %9
  %11 = load ptr, ptr %10, align 8, !tbaa !49
  ret ptr %11
}

; Function Attrs: inlinehint nounwind uwtable
define internal i32 @Saig_ManPiNum(ptr noundef %0) #3 {
  %2 = alloca ptr, align 8
  store ptr %0, ptr %2, align 8, !tbaa !24
  %3 = load ptr, ptr %2, align 8, !tbaa !24
  %4 = getelementptr inbounds nuw %struct.Aig_Man_t_, ptr %3, i32 0, i32 9
  %5 = load i32, ptr %4, align 4, !tbaa !65
  ret i32 %5
}

; Function Attrs: inlinehint nounwind uwtable
define internal void @Aig_ObjSetTravIdCurrent(ptr noundef %0, ptr noundef %1) #3 {
  %3 = alloca ptr, align 8
  %4 = alloca ptr, align 8
  store ptr %0, ptr %3, align 8, !tbaa !24
  store ptr %1, ptr %4, align 8, !tbaa !3
  %5 = load ptr, ptr %3, align 8, !tbaa !24
  %6 = getelementptr inbounds nuw %struct.Aig_Man_t_, ptr %5, i32 0, i32 38
  %7 = load i32, ptr %6, align 8, !tbaa !75
  %8 = load ptr, ptr %4, align 8, !tbaa !3
  %9 = getelementptr inbounds nuw %struct.Aig_Obj_t_, ptr %8, i32 0, i32 4
  store i32 %7, ptr %9, align 8, !tbaa !76
  ret void
}

; Function Attrs: inlinehint nounwind uwtable
define internal ptr @Aig_ManConst1(ptr noundef %0) #3 {
  %2 = alloca ptr, align 8
  store ptr %0, ptr %2, align 8, !tbaa !24
  %3 = load ptr, ptr %2, align 8, !tbaa !24
  %4 = getelementptr inbounds nuw %struct.Aig_Man_t_, ptr %3, i32 0, i32 6
  %5 = load ptr, ptr %4, align 8, !tbaa !71
  ret ptr %5
}

; Function Attrs: nounwind uwtable
define void @Saig_StrSimSetContiguousMatching(ptr noundef %0, ptr noundef %1) #0 {
  %3 = alloca ptr, align 8
  %4 = alloca ptr, align 8
  %5 = alloca ptr, align 8
  %6 = alloca ptr, align 8
  %7 = alloca i32, align 4
  %8 = alloca i32, align 4
  %9 = alloca i32, align 4
  store ptr %0, ptr %3, align 8, !tbaa !24
  store ptr %1, ptr %4, align 8, !tbaa !24
  call void @llvm.lifetime.start.p0(i64 8, ptr %5) #10
  call void @llvm.lifetime.start.p0(i64 8, ptr %6) #10
  call void @llvm.lifetime.start.p0(i64 4, ptr %7) #10
  call void @llvm.lifetime.start.p0(i64 4, ptr %8) #10
  store i32 0, ptr %8, align 4, !tbaa !8
  call void @llvm.lifetime.start.p0(i64 4, ptr %9) #10
  store i32 0, ptr %9, align 4, !tbaa !8
  %10 = load ptr, ptr %3, align 8, !tbaa !24
  call void @Aig_ManIncrementTravId(ptr noundef %10)
  %11 = load ptr, ptr %3, align 8, !tbaa !24
  %12 = load ptr, ptr %3, align 8, !tbaa !24
  %13 = call ptr @Aig_ManConst1(ptr noundef %12)
  call void @Aig_ObjSetTravIdCurrent(ptr noundef %11, ptr noundef %13)
  store i32 0, ptr %7, align 4, !tbaa !8
  br label %14

14:                                               ; preds = %30, %2
  %15 = load i32, ptr %7, align 4, !tbaa !8
  %16 = load ptr, ptr %3, align 8, !tbaa !24
  %17 = call i32 @Saig_ManPiNum(ptr noundef %16)
  %18 = icmp slt i32 %15, %17
  br i1 %18, label %19, label %25

19:                                               ; preds = %14
  %20 = load ptr, ptr %3, align 8, !tbaa !24
  %21 = getelementptr inbounds nuw %struct.Aig_Man_t_, ptr %20, i32 0, i32 2
  %22 = load ptr, ptr %21, align 8, !tbaa !54
  %23 = load i32, ptr %7, align 4, !tbaa !8
  %24 = call ptr @Vec_PtrEntry(ptr noundef %22, i32 noundef %23)
  store ptr %24, ptr %5, align 8, !tbaa !3
  br label %25

25:                                               ; preds = %19, %14
  %26 = phi i1 [ false, %14 ], [ true, %19 ]
  br i1 %26, label %27, label %33

27:                                               ; preds = %25
  %28 = load ptr, ptr %3, align 8, !tbaa !24
  %29 = load ptr, ptr %5, align 8, !tbaa !3
  call void @Saig_StrSimSetContiguousMatching_rec(ptr noundef %28, ptr noundef %29)
  br label %30

30:                                               ; preds = %27
  %31 = load i32, ptr %7, align 4, !tbaa !8
  %32 = add nsw i32 %31, 1
  store i32 %32, ptr %7, align 4, !tbaa !8
  br label %14, !llvm.loop !82

33:                                               ; preds = %25
  store i32 0, ptr %7, align 4, !tbaa !8
  br label %34

34:                                               ; preds = %76, %33
  %35 = load i32, ptr %7, align 4, !tbaa !8
  %36 = load ptr, ptr %3, align 8, !tbaa !24
  %37 = getelementptr inbounds nuw %struct.Aig_Man_t_, ptr %36, i32 0, i32 4
  %38 = load ptr, ptr %37, align 8, !tbaa !26
  %39 = call i32 @Vec_PtrSize(ptr noundef %38)
  %40 = icmp slt i32 %35, %39
  br i1 %40, label %41, label %47

41:                                               ; preds = %34
  %42 = load ptr, ptr %3, align 8, !tbaa !24
  %43 = getelementptr inbounds nuw %struct.Aig_Man_t_, ptr %42, i32 0, i32 4
  %44 = load ptr, ptr %43, align 8, !tbaa !26
  %45 = load i32, ptr %7, align 4, !tbaa !8
  %46 = call ptr @Vec_PtrEntry(ptr noundef %44, i32 noundef %45)
  store ptr %46, ptr %5, align 8, !tbaa !3
  br label %47

47:                                               ; preds = %41, %34
  %48 = phi i1 [ false, %34 ], [ true, %41 ]
  br i1 %48, label %49, label %79

49:                                               ; preds = %47
  %50 = load ptr, ptr %5, align 8, !tbaa !3
  %51 = icmp eq ptr %50, null
  br i1 %51, label %52, label %53

52:                                               ; preds = %49
  br label %75

53:                                               ; preds = %49
  %54 = load ptr, ptr %3, align 8, !tbaa !24
  %55 = load ptr, ptr %5, align 8, !tbaa !3
  %56 = call ptr @Aig_ObjRepr(ptr noundef %54, ptr noundef %55)
  store ptr %56, ptr %6, align 8, !tbaa !3
  %57 = load ptr, ptr %6, align 8, !tbaa !3
  %58 = icmp eq ptr %57, null
  br i1 %58, label %59, label %60

59:                                               ; preds = %53
  br label %76

60:                                               ; preds = %53
  %61 = load i32, ptr %8, align 4, !tbaa !8
  %62 = add nsw i32 %61, 1
  store i32 %62, ptr %8, align 4, !tbaa !8
  %63 = load ptr, ptr %3, align 8, !tbaa !24
  %64 = load ptr, ptr %5, align 8, !tbaa !3
  %65 = call i32 @Aig_ObjIsTravIdCurrent(ptr noundef %63, ptr noundef %64)
  %66 = icmp ne i32 %65, 0
  br i1 %66, label %74, label %67

67:                                               ; preds = %60
  %68 = load ptr, ptr %3, align 8, !tbaa !24
  %69 = load ptr, ptr %5, align 8, !tbaa !3
  call void @Aig_ObjSetRepr(ptr noundef %68, ptr noundef %69, ptr noundef null)
  %70 = load ptr, ptr %4, align 8, !tbaa !24
  %71 = load ptr, ptr %6, align 8, !tbaa !3
  call void @Aig_ObjSetRepr(ptr noundef %70, ptr noundef %71, ptr noundef null)
  %72 = load i32, ptr %9, align 4, !tbaa !8
  %73 = add nsw i32 %72, 1
  store i32 %73, ptr %9, align 4, !tbaa !8
  br label %74

74:                                               ; preds = %67, %60
  br label %75

75:                                               ; preds = %74, %52
  br label %76

76:                                               ; preds = %75, %59
  %77 = load i32, ptr %7, align 4, !tbaa !8
  %78 = add nsw i32 %77, 1
  store i32 %78, ptr %7, align 4, !tbaa !8
  br label %34, !llvm.loop !83

79:                                               ; preds = %47
  %80 = load i32, ptr %8, align 4, !tbaa !8
  %81 = load i32, ptr %9, align 4, !tbaa !8
  %82 = load i32, ptr %9, align 4, !tbaa !8
  %83 = sitofp i32 %82 to double
  %84 = fmul double 1.000000e+02, %83
  %85 = load i32, ptr %8, align 4, !tbaa !8
  %86 = sitofp i32 %85 to double
  %87 = fdiv double %84, %86
  call void (i32, ptr, ...) @Abc_Print(i32 noundef 1, ptr noundef @.str, i32 noundef %80, i32 noundef %81, double noundef %87)
  call void @llvm.lifetime.end.p0(i64 4, ptr %9) #10
  call void @llvm.lifetime.end.p0(i64 4, ptr %8) #10
  call void @llvm.lifetime.end.p0(i64 4, ptr %7) #10
  call void @llvm.lifetime.end.p0(i64 8, ptr %6) #10
  call void @llvm.lifetime.end.p0(i64 8, ptr %5) #10
  ret void
}