; Function Attrs: nounwind uwtable
define void @Saig_StrSimSetContiguousMatching(ptr noundef %0, ptr noundef readonly captures(none) %1) local_unnamed_addr #2 {
  tail call void @Aig_ManIncrementTravId(ptr noundef %0) #19
  %3 = getelementptr i8, ptr %0, i64 48
  %.val46 = load ptr, ptr %3, align 8, !tbaa !66
  %4 = getelementptr i8, ptr %0, i64 312
  %.val47 = load i32, ptr %4, align 8, !tbaa !69
  %5 = getelementptr inbounds nuw i8, ptr %.val46, i64 32
  store i32 %.val47, ptr %5, align 8, !tbaa !70
  %6 = getelementptr i8, ptr %0, i64 108
  %.val4150 = load i32, ptr %6, align 4, !tbaa !46
  %7 = icmp sgt i32 %.val4150, 0
  br i1 %7, label %.lr.ph, label %.critedge.preheader

.lr.ph:                                           ; preds = %2
  %8 = getelementptr inbounds nuw i8, ptr %0, i64 16
  br label %16

.critedge.preheader:                              ; preds = %16, %2
  %9 = getelementptr inbounds nuw i8, ptr %0, i64 32
  %10 = load ptr, ptr %9, align 8, !tbaa !20
  %11 = getelementptr i8, ptr %10, i64 4
  %.val = load i32, ptr %11, align 4, !tbaa !32
  %12 = icmp sgt i32 %.val, 0
  br i1 %12, label %.lr.ph55, label %.critedge2

.lr.ph55:                                         ; preds = %.critedge.preheader
  %13 = getelementptr i8, ptr %10, i64 8
  %.val38 = load ptr, ptr %13, align 8, !tbaa !34
  %14 = getelementptr i8, ptr %0, i64 256
  %15 = getelementptr i8, ptr %1, i64 256
  %wide.trip.count = zext nneg i32 %.val to i64
  br label %23

16:                                               ; preds = %.lr.ph, %16
  %indvars.iv = phi i64 [ 0, %.lr.ph ], [ %indvars.iv.next, %16 ]
  %17 = load ptr, ptr %8, align 8, !tbaa !45
  %18 = getelementptr i8, ptr %17, i64 8
  %.val39 = load ptr, ptr %18, align 8, !tbaa !34
  %19 = getelementptr inbounds nuw ptr, ptr %.val39, i64 %indvars.iv
  %20 = load ptr, ptr %19, align 8, !tbaa !35
  tail call void @Saig_StrSimSetContiguousMatching_rec(ptr noundef nonnull %0, ptr noundef %20)
  %indvars.iv.next = add nuw nsw i64 %indvars.iv, 1
  %.val41 = load i32, ptr %6, align 4, !tbaa !46
  %21 = sext i32 %.val41 to i64
  %22 = icmp slt i64 %indvars.iv.next, %21
  br i1 %22, label %16, label %.critedge.preheader, !llvm.loop !80

23:                                               ; preds = %.lr.ph55, %Aig_ObjRepr.exit.thread
  %indvars.iv58 = phi i64 [ 0, %.lr.ph55 ], [ %indvars.iv.next59, %Aig_ObjRepr.exit.thread ]
  %.054 = phi i32 [ 0, %.lr.ph55 ], [ %.1, %Aig_ObjRepr.exit.thread ]
  %.03253 = phi i32 [ 0, %.lr.ph55 ], [ %.133, %Aig_ObjRepr.exit.thread ]
  %24 = getelementptr inbounds nuw ptr, ptr %.val38, i64 %indvars.iv58
  %25 = load ptr, ptr %24, align 8, !tbaa !35
  %26 = icmp eq ptr %25, null
  br i1 %26, label %Aig_ObjRepr.exit.thread, label %27

27:                                               ; preds = %23
  %.val40 = load ptr, ptr %14, align 8, !tbaa !36
  %.not.i = icmp eq ptr %.val40, null
  br i1 %.not.i, label %Aig_ObjRepr.exit.thread, label %Aig_ObjRepr.exit

Aig_ObjRepr.exit:                                 ; preds = %27
  %28 = getelementptr i8, ptr %25, i64 36
  %29 = load i32, ptr %28, align 4, !tbaa !37
  %30 = sext i32 %29 to i64
  %31 = getelementptr inbounds ptr, ptr %.val40, i64 %30
  %32 = load ptr, ptr %31, align 8, !tbaa !38
  %33 = icmp eq ptr %32, null
  br i1 %33, label %Aig_ObjRepr.exit.thread, label %34

34:                                               ; preds = %Aig_ObjRepr.exit
  %35 = add nsw i32 %.03253, 1
  %.val48 = load i32, ptr %4, align 8, !tbaa !69
  %36 = getelementptr i8, ptr %25, i64 32
  %.val49 = load i32, ptr %36, align 8, !tbaa !70
  %.not = icmp eq i32 %.val49, %.val48
  br i1 %.not, label %Aig_ObjRepr.exit.thread, label %37

37:                                               ; preds = %34
  store ptr null, ptr %31, align 8, !tbaa !38
  %.val42 = load ptr, ptr %15, align 8, !tbaa !36
  %38 = getelementptr i8, ptr %32, i64 36
  %.val43 = load i32, ptr %38, align 4, !tbaa !37
  %39 = sext i32 %.val43 to i64
  %40 = getelementptr inbounds ptr, ptr %.val42, i64 %39
  store ptr null, ptr %40, align 8, !tbaa !38
  %41 = add nsw i32 %.054, 1
  br label %Aig_ObjRepr.exit.thread

Aig_ObjRepr.exit.thread:                          ; preds = %27, %23, %37, %34, %Aig_ObjRepr.exit
  %.133 = phi i32 [ %.03253, %23 ], [ %.03253, %Aig_ObjRepr.exit ], [ %35, %34 ], [ %35, %37 ], [ %.03253, %27 ]
  %.1 = phi i32 [ %.054, %23 ], [ %.054, %Aig_ObjRepr.exit ], [ %.054, %34 ], [ %41, %37 ], [ %.054, %27 ]
  %indvars.iv.next59 = add nuw nsw i64 %indvars.iv58, 1
  %exitcond.not = icmp eq i64 %indvars.iv.next59, %wide.trip.count
  br i1 %exitcond.not, label %.critedge2, label %23, !llvm.loop !81

.critedge2:                                       ; preds = %Aig_ObjRepr.exit.thread, %.critedge.preheader
  %.032.lcssa = phi i32 [ 0, %.critedge.preheader ], [ %.133, %Aig_ObjRepr.exit.thread ]
  %.0.lcssa = phi i32 [ 0, %.critedge.preheader ], [ %.1, %Aig_ObjRepr.exit.thread ]
  %42 = sitofp i32 %.0.lcssa to double
  %43 = fmul double %42, 1.000000e+02
  %44 = sitofp i32 %.032.lcssa to double
  %45 = fdiv double %43, %44
  tail call void (i32, ptr, ...) @Abc_Print(i32 poison, ptr noundef nonnull @.str, i32 noundef %.032.lcssa, i32 noundef %.0.lcssa, double noundef %45)
  ret void
}